(dp0
S'CMS_2011_S9215166'
p1
V5ebc7702-80b6-d2e4-1df2-c173285598bc
p2
sS'ATLAS_2012_I1204447'
p3
V701b800d-448c-1014-65ff-3db6eaf351f9
p4
sS'ATLAS_2013_I1230812'
p5
V1a0500d1-80e0-dc44-b9c5-f34b1359f9d8
p6
sS'CMS_2013_I1224539_WJET'
p7
V54b07cb4-9f09-1914-15a5-dd75708f57ba
p8
sS'ATLAS_2011_I894867'
p9
Vbe6b3c7c-706c-f514-2d4f-d1716be9b394
p10
sS'ATLAS_2011_S8924791'
p11
V5062e2cc-8cf0-6c24-7584-358a42cd5dde
p12
sS'ATLAS_2014_I1298811'
p13
V518c2393-48fb-c9b4-819b-07ec32568d49
p14
sS'CMS_2013_I1261026'
p15
V178bbea1-a8c9-46e4-d9c7-8fb76e2421fa
p16
sS'ATLAS_2012_I1125575'
p17
Vae844f78-f80b-9ec4-ede4-4da0be5a0f5e
p18
sS'CMS_2011_I954992'
p19
V6636de2a-ba8f-d4d4-09e0-cbbb28130d39
p20
sS'CMS_QCD_10_024'
p21
Vc1e63702-4f7a-8804-e937-d0bd9a6d0cd5
p22
sS'ATLAS_2012_I943401'
p23
V3b9c9b04-f72f-8eb4-0db8-f4584436c16e
p24
sS'ATLAS_2011_S8971293'
p25
V8ce71c6a-e5c6-56e4-5db9-0b8740381746
p26
sS'ATLAS_2012_I1084540'
p27
V6f7da780-0ec0-4234-0d8c-9e7623fbb57a
p28
sS'CMS_2013_I1218372'
p29
V1c6dc3d8-d4bf-d964-6dd1-2b5df1a2f4fe
p30
sS'ATLAS_2013_I1190187'
p31
Va5926049-b67c-cb14-a1fe-d11852fe2ea9
p32
sS'CMS_2011_S9086218'
p33
V002dbcda-c4ea-1b94-bdb5-245befc8b8cb
p34
sS'ATLAS_2012_I1124167'
p35
V121abb37-09e7-2744-25c2-b77ee58933b7
p36
sS'ATLAS_2012_I1204784'
p37
Vadc975ec-37d8-96f4-a518-818078232512
p38
sS'ATLAS_2014_I1279489'
p39
V33ca1dd1-77fc-bce4-adfd-a2a8c7276eac
p40
sS'ATLAS_2011_I945498'
p41
Vc365fbb6-d9ac-e694-699e-22f67265f7fd
p42
sS'CMS_2011_S9120041'
p43
V661291dc-5fad-72e4-41e3-541886f62aef
p44
sS'ATLAS_2014_I1282441'
p45
V925646cb-202a-b0e4-2d2e-3e39e4330af9
p46
sS'CMS_2013_I1256943'
p47
Vcad6ab9f-a49c-ca64-c593-19c02d01c037
p48
sS'ATLAS_2013_I1230812_EL'
p49
Vc19f890b-164b-f1a4-b169-cfc8eb8d06c5
p50
sS'ATLAS_2011_S9212183'
p51
Ve32d717c-ec94-0204-6d16-4de97bca9600
p52
sS'CMS_2012_I1193338'
p53
V1980f382-cdea-3364-d574-f5e8044bbd9f
p54
sS'ATLAS_2014_I1304688'
p55
V2deb5d01-2e82-3924-2d9e-fea9a3000d18
p56
sS'ATLAS_2011_S9225137'
p57
V0266eb00-bf62-2724-e134-c2cd6bee5fef
p58
sS'CMS_2011_S9088458'
p59
Vc53a2006-b40d-ebc4-6933-1f0050528beb
p60
sS'CMS_2012_I1102908'
p61
V79b1fa7a-562e-0aa4-f10e-5567ab3c961e
p62
sS'CMS_2013_I1224539_DIJET'
p63
V97adfcbf-c00f-29b4-d9a1-8b29c0aa1f84
p64
sS'CMS_2013_I1265659'
p65
Vca4265f4-453a-7f64-19b3-026be5e49e86
p66
sS'ATLAS_2013_I1230812_MU'
p67
V50da57ce-0d2a-3114-5df3-1c699db688ad
p68
sS'CMS_2011_S8950903'
p69
Vd80bcc92-a8d1-7ec4-055f-54f6df1c8af1
p70
sS'CMS_2013_I1224539_ZJET'
p71
V7a3a3f6f-f792-9594-09d6-bfc9c3b0507c
p72
sS'ATLAS_2012_I1112263'
p73
V92d55e43-bd42-40b4-2511-178f2d61298d
p74
sS'ATLAS_2011_S9131140'
p75
V10f93643-cf1a-7ac4-1108-6ce47e94d8c1
p76
sS'ATLAS_2012_I1082936'
p77
Vc4b4450e-897a-1024-95a6-0d6bb8d7c47d
p78
sS'CMS_2013_I1209721'
p79
V7005723b-59fd-b364-658a-52d3311fc877
p80
sS'ATLAS_2010_S8919674'
p81
V3bda5bdc-6bda-d844-3586-637b7ecb6a5b
p82
sS'ATLAS_2012_I1094568'
p83
V6217e587-e7f3-8a94-6907-3e0f95eb216c
p84
sS'ATLAS_2010_S8918562'
p85
V93858472-130a-f584-f9cd-03fa76eabbfd
p86
sS'ATLAS_2012_I1094564'
p87
Vc6b9f3c7-7c5d-c304-a172-f3d10845b371
p88
sS'CMS_2011_S8978280'
p89
Vfd023c87-762f-41a4-8d9b-8c808627b463
p90
sS'ATLAS_2010_S8591806'
p91
Vf4ebf398-4518-dee4-d128-f380fa57a901
p92
sS'ATLAS_2012_I1203852'
p93
V4ff85801-25c2-98d4-e999-de255a763a47
p94
sS'ATLAS_2013_I1243871'
p95
Ve55060d4-e358-0404-e140-e9b0e0b048f3
p96
sS'CMS_2013_I1272853'
p97
V9db9f80a-34f2-5204-991a-5810f81e5e1b
p98
sS'ATLAS_2012_I1118269'
p99
Vf5302b9d-9788-3294-8d28-801bca9ccd39
p100
sS'ATLAS_2012_I1119557'
p101
Va371efd9-0d13-9734-31de-d772219903a6
p102
sS'CMS_2010_S8547297'
p103
V4a58bb2f-4452-a124-11d0-354550728695
p104
sS'ATLAS_2011_I930220'
p105
V2ea63664-493f-dfc4-39b6-19a0e8b26da9
p106
sS'CMS_2013_I1273574'
p107
V8be8e294-aed9-3184-b95b-95461f6e85ed
p108
sS'ATLAS_2012_I1093738'
p109
V0ca62e2b-6e66-6814-15ef-1f21d3ef117a
p110
sS'ATLAS_2012_I1117704'
p111
Veeaf84a7-c0bc-6524-dd89-0233b68b2beb
p112
sS'CMS_2012_I1087342'
p113
V343f4996-13ff-4974-b115-05db31459455
p114
sS'ATLAS_2012_I1093734'
p115
Vdafa4746-4762-8804-592f-71b87da83a0f
p116
sS'CMS_2011_S8973270'
p117
Vd5a4bace-5c19-a114-0597-4012ad637dc4
p118
sS'ATLAS_2011_S9128077'
p119
V28412514-ec7f-9374-3ddc-97ab5a244b8c
p120
sS'ATLAS_2011_S9019561'
p121
V8f17e54f-a58a-93f4-31d9-1644c0b24edb
p122
sS'ATLAS_2011_I944826'
p123
Vb1fb0d73-fd39-ecd4-69b7-94d93a8c17f2
p124
sS'CMS_2011_S8884919'
p125
Vd5fab290-1778-8d24-a9c3-a829b455df05
p126
sS'ATLAS_2011_I919017'
p127
V9f6e517d-1404-8564-adc7-e52327822c3a
p128
sS'ATLAS_2011_I954993'
p129
V75052035-9ceb-c674-4d7b-53d7fd701f39
p130
sS'CMS_2012_I1090423'
p131
Vbe0a14b1-3dae-b004-c58e-48d6f069393a
p132
sS'ATLAS_2011_S8983313'
p133
Vec86dabb-849a-bc64-e1d5-4b4760bbd176
p134
sS'CMS_2013_I1258128'
p135
Vf01cf43b-cd85-3f64-9d40-49e33bbe0dc1
p136
sS'ATLAS_2013_I1263495'
p137
Vcee70d74-74bf-86e4-e530-0fdd299d2f8d
p138
sS'ATLAS_2012_I1125961'
p139
Ve9cd19c5-8aad-34c4-5520-68cc6b38d374
p140
sS'ATLAS_2013_I1217867'
p141
V4ab462c5-5aae-7134-9d90-d3973fe23cc0
p142
sS'ATLAS_2014_I1307756'
p143
V40a82964-032c-1b04-bd37-96887f938fcc
p144
sS'ATLAS_2011_S9126244'
p145
V64e6ef5e-5734-b514-3df3-ea8559dd2951
p146
sS'CMS_2011_S8957746'
p147
V16d77f5d-ff75-9454-a9c8-ee969ec59b6a
p148
sS'ATLAS_2011_I926145'
p149
Ve064ff48-9f2b-d0c4-958a-73c5055807fd
p150
sS'ATLAS_2011_I921594'
p151
V8f19aef9-09a4-da04-117f-06dfd7dc2875
p152
sS'CMS_2012_I1107658'
p153
V610e6672-d3d4-9434-65c8-5b0bdeb697d7
p154
sS'ATLAS_2010_S8894728'
p155
V6d7bd26a-0af1-1184-3574-c53547f73667
p156
sS'CMS_2010_S8656010'
p157
V93b60317-0a4e-5314-11bb-9194d932baa9
p158
sS'ATLAS_2012_I1183818'
p159
Vc9e9cb0f-1bbc-d874-49fc-0834e932a9ba
p160
sS'ATLAS_2011_S8994773'
p161
V2e4e05d7-12c6-6004-a57d-9960423c2d92
p162
sS'ATLAS_2012_I1188891'
p163
Va3a81813-6ea7-db34-2da4-b800821c33bc
p164
sS'CMS_2011_S8941262'
p165
Vb1b453e5-35e7-3ea4-758f-f1b686334514
p166
sS'ATLAS_2014_I1268975'
p167
Vddc4413f-d514-1d84-7195-0eb2a0a5c172
p168
sS'CMS_2012_I941555'
p169
Vad2c03ac-1157-ecc4-7da4-f7c9a044527c
p170
sS'ATLAS_2011_S9120807'
p171
Vc93e6f5e-cdfd-f544-6d27-0ee6ba752e30
p172
sS'ATLAS_2010_S8817804'
p173
V829ba121-d0ce-ce94-8dc6-b6a22fed317c
p174
sS'ATLAS_2011_S9002537'
p175
Va6f0d983-2248-6424-3170-c04d98e3b394
p176
sS'ATLAS_2011_I925932'
p177
Vea725695-f747-d214-c146-6cd94bef9690
p178
sS'CMS_2011_S8968497'
p179
V4cd48179-38e2-3234-8124-725ae86642ec
p180
sS'ATLAS_2010_S8914702'
p181
V95a4fcc0-baa9-7274-c9d5-b731fbab57fa
p182
sS'CMS_2012_I1184941'
p183
V1f3dbc55-5100-9284-4519-aac16f60988d
p184
s.